target datalayout = "e-m:e-p270:32:32-p271:32:32-p272:64:64-i64:64-i128:128-f80:128-n8:16:32:64-S128"
target triple = "x86_64-pc-linux-gnu"

%"class.Imf_3_4::Attribute" = type { ptr }
%"class.Imath_3_2::Matrix44" = type { [4 x [4 x float]] }
%"class.Imf_3_4::TypedAttribute.20" = type { %"class.Imf_3_4::Attribute", %"class.Imath_3_2::Matrix44" }

@_ZTISt9exception = external constant ptr
@_ZN12_GLOBAL__N_112errorMessageE = internal global [1024 x i8] zeroinitializer, align 16
@_ZTIN7Imf_3_49AttributeE = external constant ptr
@.str = private unnamed_addr constant [27 x i8] c"Unexpected attribute type.\00", align 1
@_ZTIN7Iex_3_47TypeExcE = external constant ptr
@_ZTIN7Imf_3_414TypedAttributeIN9Imath_3_28Matrix44IfEEEE = external constant ptr

; Function Attrs: noinline noreturn nounwind uwtable
define linkonce_odr hidden void @__clang_call_terminate(ptr noundef %0) #11 comdat {
  %2 = call ptr @__cxa_begin_catch(ptr %0) #3
  call void @_ZSt9terminatev() #18
  unreachable
}

; Function Attrs: mustprogress nounwind uwtable
define internal void @_ZN12_GLOBAL__N_115setErrorMessageERKSt9exception(ptr noundef nonnull align 8 dereferenceable(8) %0) #4 {
  %2 = alloca ptr, align 8
  store ptr %0, ptr %2, align 8, !tbaa !23
  %3 = load ptr, ptr %2, align 8, !tbaa !23
  %4 = load ptr, ptr %3, align 8, !tbaa !30
  %5 = getelementptr inbounds ptr, ptr %4, i64 2
  %6 = load ptr, ptr %5, align 8
  %7 = call noundef ptr %6(ptr noundef nonnull align 8 dereferenceable(8) %3) #3
  %8 = call ptr @strncpy(ptr noundef @_ZN12_GLOBAL__N_112errorMessageE, ptr noundef %7, i64 noundef 1023) #3
  store i8 0, ptr getelementptr inbounds ([1024 x i8], ptr @_ZN12_GLOBAL__N_112errorMessageE, i64 0, i64 1023), align 1, !tbaa !32
  ret void
}

; Function Attrs: inlinehint mustprogress nounwind uwtable
define linkonce_odr hidden noundef ptr @_ZNK9Imath_3_28Matrix44IfEixEi(ptr noundef nonnull align 4 dereferenceable(64) %0, i32 noundef %1) #6 comdat align 2 {
  %3 = alloca ptr, align 8
  %4 = alloca i32, align 4
  store ptr %0, ptr %3, align 8, !tbaa !117
  store i32 %1, ptr %4, align 4, !tbaa !16
  %5 = load ptr, ptr %3, align 8
  %6 = getelementptr inbounds nuw %"class.Imath_3_2::Matrix44", ptr %5, i32 0, i32 0
  %7 = load i32, ptr %4, align 4, !tbaa !16
  %8 = sext i32 %7 to i64
  %9 = getelementptr inbounds [4 x [4 x float]], ptr %6, i64 0, i64 %8
  %10 = getelementptr inbounds [4 x float], ptr %9, i64 0, i64 0
  ret ptr %10
}

; Function Attrs: inlinehint mustprogress nounwind uwtable
define available_externally noundef nonnull align 4 dereferenceable(64) ptr @_ZNK7Imf_3_414TypedAttributeIN9Imath_3_28Matrix44IfEEE5valueEv(ptr noundef nonnull align 8 dereferenceable(72) %0) #6 align 2 {
  %2 = alloca ptr, align 8
  store ptr %0, ptr %2, align 8, !tbaa !119
  %3 = load ptr, ptr %2, align 8
  %4 = getelementptr inbounds nuw %"class.Imf_3_4::TypedAttribute.20", ptr %3, i32 0, i32 1
  ret ptr %4
}

; Function Attrs: mustprogress uwtable
define linkonce_odr noundef nonnull align 8 dereferenceable(72) ptr @_ZNK7Imf_3_46Header14typedAttributeINS_14TypedAttributeIN9Imath_3_28Matrix44IfEEEEEERKT_PKc(ptr noundef nonnull align 8 dereferenceable(49) %0, ptr noundef %1) #7 comdat align 2 personality ptr @__gxx_personality_v0 {
  %3 = alloca ptr, align 8
  %4 = alloca ptr, align 8
  %5 = alloca ptr, align 8
  %6 = alloca ptr, align 8
  %7 = alloca ptr, align 8
  %8 = alloca i32, align 4
  store ptr %0, ptr %3, align 8, !tbaa !59
  store ptr %1, ptr %4, align 8, !tbaa !53
  %9 = load ptr, ptr %3, align 8
  call void @llvm.lifetime.start.p0(i64 8, ptr %5) #3
  %10 = load ptr, ptr %4, align 8, !tbaa !53
  %11 = call noundef nonnull align 8 dereferenceable(8) ptr @_ZNK7Imf_3_46HeaderixEPKc(ptr noundef nonnull align 8 dereferenceable(49) %9, ptr noundef %10)
  store ptr %11, ptr %5, align 8, !tbaa !61
  call void @llvm.lifetime.start.p0(i64 8, ptr %6) #3
  %12 = load ptr, ptr %5, align 8, !tbaa !61
  %13 = icmp eq ptr %12, null
  br i1 %13, label %16, label %14

14:                                               ; preds = %2
  %15 = call ptr @__dynamic_cast(ptr %12, ptr @_ZTIN7Imf_3_49AttributeE, ptr @_ZTIN7Imf_3_414TypedAttributeIN9Imath_3_28Matrix44IfEEEE, i64 0) #3
  br label %17

16:                                               ; preds = %2
  br label %17

17:                                               ; preds = %16, %14
  %18 = phi ptr [ %15, %14 ], [ null, %16 ]
  store ptr %18, ptr %6, align 8, !tbaa !119
  %19 = load ptr, ptr %6, align 8, !tbaa !119
  %20 = icmp eq ptr %19, null
  br i1 %20, label %21, label %28

21:                                               ; preds = %17
  %22 = call ptr @__cxa_allocate_exception(i64 72) #3
  invoke void @_ZN7Iex_3_47TypeExcC1EPKc(ptr noundef nonnull align 8 dereferenceable(72) %22, ptr noundef @.str)
          to label %23 unwind label %24

23:                                               ; preds = %21
  call void @__cxa_throw(ptr %22, ptr @_ZTIN7Iex_3_47TypeExcE, ptr @_ZN7Iex_3_47TypeExcD1Ev) #21
  unreachable

24:                                               ; preds = %21
  %25 = landingpad { ptr, i32 }
          cleanup
  %26 = extractvalue { ptr, i32 } %25, 0
  store ptr %26, ptr %7, align 8
  %27 = extractvalue { ptr, i32 } %25, 1
  store i32 %27, ptr %8, align 4
  call void @__cxa_free_exception(ptr %22) #3
  call void @llvm.lifetime.end.p0(i64 8, ptr %6) #3
  call void @llvm.lifetime.end.p0(i64 8, ptr %5) #3
  br label %30

28:                                               ; preds = %17
  %29 = load ptr, ptr %6, align 8, !tbaa !119
  call void @llvm.lifetime.end.p0(i64 8, ptr %6) #3
  call void @llvm.lifetime.end.p0(i64 8, ptr %5) #3
  ret ptr %29

30:                                               ; preds = %24
  %31 = load ptr, ptr %7, align 8
  %32 = load i32, ptr %8, align 4
  %33 = insertvalue { ptr, i32 } poison, ptr %31, 0
  %34 = insertvalue { ptr, i32 } %33, i32 %32, 1
  resume { ptr, i32 } %34
}

; Function Attrs: inlinehint mustprogress nounwind uwtable
define internal noundef ptr @_ZN12_GLOBAL__N_16headerEPK9ImfHeader(ptr noundef %0) #6 {
  %2 = alloca ptr, align 8
  store ptr %0, ptr %2, align 8, !tbaa !33
  %3 = load ptr, ptr %2, align 8, !tbaa !33
  ret ptr %3
}

; Function Attrs: mustprogress uwtable
define i32 @ImfHeaderM44fAttribute(ptr noundef %0, ptr noundef %1, ptr noundef %2) #7 personality ptr @__gxx_personality_v0 {
  %4 = alloca i32, align 4
  %5 = alloca ptr, align 8
  %6 = alloca ptr, align 8
  %7 = alloca ptr, align 8
  %8 = alloca ptr, align 8
  %9 = alloca ptr, align 8
  %10 = alloca i32, align 4
  %11 = alloca ptr, align 8
  store ptr %0, ptr %5, align 8, !tbaa !33
  store ptr %1, ptr %6, align 8, !tbaa !53
  store ptr %2, ptr %7, align 8, !tbaa !18
  call void @llvm.lifetime.start.p0(i64 8, ptr %8) #3
  %12 = load ptr, ptr %5, align 8, !tbaa !33
  %13 = invoke noundef ptr @_ZN12_GLOBAL__N_16headerEPK9ImfHeader(ptr noundef %12)
          to label %14 unwind label %132

14:                                               ; preds = %3
  %15 = load ptr, ptr %6, align 8, !tbaa !53
  %16 = invoke noundef nonnull align 8 dereferenceable(72) ptr @_ZNK7Imf_3_46Header14typedAttributeINS_14TypedAttributeIN9Imath_3_28Matrix44IfEEEEEERKT_PKc(ptr noundef nonnull align 8 dereferenceable(49) %13, ptr noundef %15)
          to label %17 unwind label %132

17:                                               ; preds = %14
  %18 = invoke noundef nonnull align 4 dereferenceable(64) ptr @_ZNK7Imf_3_414TypedAttributeIN9Imath_3_28Matrix44IfEEE5valueEv(ptr noundef nonnull align 8 dereferenceable(72) %16)
          to label %19 unwind label %132

19:                                               ; preds = %17
  store ptr %18, ptr %8, align 8, !tbaa !117
  %20 = load ptr, ptr %8, align 8, !tbaa !117
  %21 = call noundef ptr @_ZNK9Imath_3_28Matrix44IfEixEi(ptr noundef nonnull align 4 dereferenceable(64) %20, i32 noundef 0) #3
  %22 = getelementptr inbounds float, ptr %21, i64 0
  %23 = load float, ptr %22, align 4, !tbaa !3
  %24 = load ptr, ptr %7, align 8, !tbaa !18
  %25 = getelementptr inbounds [4 x float], ptr %24, i64 0
  %26 = getelementptr inbounds [4 x float], ptr %25, i64 0, i64 0
  store float %23, ptr %26, align 4, !tbaa !3
  %27 = load ptr, ptr %8, align 8, !tbaa !117
  %28 = call noundef ptr @_ZNK9Imath_3_28Matrix44IfEixEi(ptr noundef nonnull align 4 dereferenceable(64) %27, i32 noundef 0) #3
  %29 = getelementptr inbounds float, ptr %28, i64 1
  %30 = load float, ptr %29, align 4, !tbaa !3
  %31 = load ptr, ptr %7, align 8, !tbaa !18
  %32 = getelementptr inbounds [4 x float], ptr %31, i64 0
  %33 = getelementptr inbounds [4 x float], ptr %32, i64 0, i64 1
  store float %30, ptr %33, align 4, !tbaa !3
  %34 = load ptr, ptr %8, align 8, !tbaa !117
  %35 = call noundef ptr @_ZNK9Imath_3_28Matrix44IfEixEi(ptr noundef nonnull align 4 dereferenceable(64) %34, i32 noundef 0) #3
  %36 = getelementptr inbounds float, ptr %35, i64 2
  %37 = load float, ptr %36, align 4, !tbaa !3
  %38 = load ptr, ptr %7, align 8, !tbaa !18
  %39 = getelementptr inbounds [4 x float], ptr %38, i64 0
  %40 = getelementptr inbounds [4 x float], ptr %39, i64 0, i64 2
  store float %37, ptr %40, align 4, !tbaa !3
  %41 = load ptr, ptr %8, align 8, !tbaa !117
  %42 = call noundef ptr @_ZNK9Imath_3_28Matrix44IfEixEi(ptr noundef nonnull align 4 dereferenceable(64) %41, i32 noundef 0) #3
  %43 = getelementptr inbounds float, ptr %42, i64 3
  %44 = load float, ptr %43, align 4, !tbaa !3
  %45 = load ptr, ptr %7, align 8, !tbaa !18
  %46 = getelementptr inbounds [4 x float], ptr %45, i64 0
  %47 = getelementptr inbounds [4 x float], ptr %46, i64 0, i64 3
  store float %44, ptr %47, align 4, !tbaa !3
  %48 = load ptr, ptr %8, align 8, !tbaa !117
  %49 = call noundef ptr @_ZNK9Imath_3_28Matrix44IfEixEi(ptr noundef nonnull align 4 dereferenceable(64) %48, i32 noundef 1) #3
  %50 = getelementptr inbounds float, ptr %49, i64 0
  %51 = load float, ptr %50, align 4, !tbaa !3
  %52 = load ptr, ptr %7, align 8, !tbaa !18
  %53 = getelementptr inbounds [4 x float], ptr %52, i64 1
  %54 = getelementptr inbounds [4 x float], ptr %53, i64 0, i64 0
  store float %51, ptr %54, align 4, !tbaa !3
  %55 = load ptr, ptr %8, align 8, !tbaa !117
  %56 = call noundef ptr @_ZNK9Imath_3_28Matrix44IfEixEi(ptr noundef nonnull align 4 dereferenceable(64) %55, i32 noundef 1) #3
  %57 = getelementptr inbounds float, ptr %56, i64 1
  %58 = load float, ptr %57, align 4, !tbaa !3
  %59 = load ptr, ptr %7, align 8, !tbaa !18
  %60 = getelementptr inbounds [4 x float], ptr %59, i64 1
  %61 = getelementptr inbounds [4 x float], ptr %60, i64 0, i64 1
  store float %58, ptr %61, align 4, !tbaa !3
  %62 = load ptr, ptr %8, align 8, !tbaa !117
  %63 = call noundef ptr @_ZNK9Imath_3_28Matrix44IfEixEi(ptr noundef nonnull align 4 dereferenceable(64) %62, i32 noundef 1) #3
  %64 = getelementptr inbounds float, ptr %63, i64 2
  %65 = load float, ptr %64, align 4, !tbaa !3
  %66 = load ptr, ptr %7, align 8, !tbaa !18
  %67 = getelementptr inbounds [4 x float], ptr %66, i64 1
  %68 = getelementptr inbounds [4 x float], ptr %67, i64 0, i64 2
  store float %65, ptr %68, align 4, !tbaa !3
  %69 = load ptr, ptr %8, align 8, !tbaa !117
  %70 = call noundef ptr @_ZNK9Imath_3_28Matrix44IfEixEi(ptr noundef nonnull align 4 dereferenceable(64) %69, i32 noundef 1) #3
  %71 = getelementptr inbounds float, ptr %70, i64 3
  %72 = load float, ptr %71, align 4, !tbaa !3
  %73 = load ptr, ptr %7, align 8, !tbaa !18
  %74 = getelementptr inbounds [4 x float], ptr %73, i64 1
  %75 = getelementptr inbounds [4 x float], ptr %74, i64 0, i64 3
  store float %72, ptr %75, align 4, !tbaa !3
  %76 = load ptr, ptr %8, align 8, !tbaa !117
  %77 = call noundef ptr @_ZNK9Imath_3_28Matrix44IfEixEi(ptr noundef nonnull align 4 dereferenceable(64) %76, i32 noundef 2) #3
  %78 = getelementptr inbounds float, ptr %77, i64 0
  %79 = load float, ptr %78, align 4, !tbaa !3
  %80 = load ptr, ptr %7, align 8, !tbaa !18
  %81 = getelementptr inbounds [4 x float], ptr %80, i64 2
  %82 = getelementptr inbounds [4 x float], ptr %81, i64 0, i64 0
  store float %79, ptr %82, align 4, !tbaa !3
  %83 = load ptr, ptr %8, align 8, !tbaa !117
  %84 = call noundef ptr @_ZNK9Imath_3_28Matrix44IfEixEi(ptr noundef nonnull align 4 dereferenceable(64) %83, i32 noundef 2) #3
  %85 = getelementptr inbounds float, ptr %84, i64 1
  %86 = load float, ptr %85, align 4, !tbaa !3
  %87 = load ptr, ptr %7, align 8, !tbaa !18
  %88 = getelementptr inbounds [4 x float], ptr %87, i64 2
  %89 = getelementptr inbounds [4 x float], ptr %88, i64 0, i64 1
  store float %86, ptr %89, align 4, !tbaa !3
  %90 = load ptr, ptr %8, align 8, !tbaa !117
  %91 = call noundef ptr @_ZNK9Imath_3_28Matrix44IfEixEi(ptr noundef nonnull align 4 dereferenceable(64) %90, i32 noundef 2) #3
  %92 = getelementptr inbounds float, ptr %91, i64 2
  %93 = load float, ptr %92, align 4, !tbaa !3
  %94 = load ptr, ptr %7, align 8, !tbaa !18
  %95 = getelementptr inbounds [4 x float], ptr %94, i64 2
  %96 = getelementptr inbounds [4 x float], ptr %95, i64 0, i64 2
  store float %93, ptr %96, align 4, !tbaa !3
  %97 = load ptr, ptr %8, align 8, !tbaa !117
  %98 = call noundef ptr @_ZNK9Imath_3_28Matrix44IfEixEi(ptr noundef nonnull align 4 dereferenceable(64) %97, i32 noundef 2) #3
  %99 = getelementptr inbounds float, ptr %98, i64 3
  %100 = load float, ptr %99, align 4, !tbaa !3
  %101 = load ptr, ptr %7, align 8, !tbaa !18
  %102 = getelementptr inbounds [4 x float], ptr %101, i64 2
  %103 = getelementptr inbounds [4 x float], ptr %102, i64 0, i64 3
  store float %100, ptr %103, align 4, !tbaa !3
  %104 = load ptr, ptr %8, align 8, !tbaa !117
  %105 = call noundef ptr @_ZNK9Imath_3_28Matrix44IfEixEi(ptr noundef nonnull align 4 dereferenceable(64) %104, i32 noundef 3) #3
  %106 = getelementptr inbounds float, ptr %105, i64 0
  %107 = load float, ptr %106, align 4, !tbaa !3
  %108 = load ptr, ptr %7, align 8, !tbaa !18
  %109 = getelementptr inbounds [4 x float], ptr %108, i64 3
  %110 = getelementptr inbounds [4 x float], ptr %109, i64 0, i64 0
  store float %107, ptr %110, align 4, !tbaa !3
  %111 = load ptr, ptr %8, align 8, !tbaa !117
  %112 = call noundef ptr @_ZNK9Imath_3_28Matrix44IfEixEi(ptr noundef nonnull align 4 dereferenceable(64) %111, i32 noundef 3) #3
  %113 = getelementptr inbounds float, ptr %112, i64 1
  %114 = load float, ptr %113, align 4, !tbaa !3
  %115 = load ptr, ptr %7, align 8, !tbaa !18
  %116 = getelementptr inbounds [4 x float], ptr %115, i64 3
  %117 = getelementptr inbounds [4 x float], ptr %116, i64 0, i64 1
  store float %114, ptr %117, align 4, !tbaa !3
  %118 = load ptr, ptr %8, align 8, !tbaa !117
  %119 = call noundef ptr @_ZNK9Imath_3_28Matrix44IfEixEi(ptr noundef nonnull align 4 dereferenceable(64) %118, i32 noundef 3) #3
  %120 = getelementptr inbounds float, ptr %119, i64 2
  %121 = load float, ptr %120, align 4, !tbaa !3
  %122 = load ptr, ptr %7, align 8, !tbaa !18
  %123 = getelementptr inbounds [4 x float], ptr %122, i64 3
  %124 = getelementptr inbounds [4 x float], ptr %123, i64 0, i64 2
  store float %121, ptr %124, align 4, !tbaa !3
  %125 = load ptr, ptr %8, align 8, !tbaa !117
  %126 = call noundef ptr @_ZNK9Imath_3_28Matrix44IfEixEi(ptr noundef nonnull align 4 dereferenceable(64) %125, i32 noundef 3) #3
  %127 = getelementptr inbounds float, ptr %126, i64 3
  %128 = load float, ptr %127, align 4, !tbaa !3
  %129 = load ptr, ptr %7, align 8, !tbaa !18
  %130 = getelementptr inbounds [4 x float], ptr %129, i64 3
  %131 = getelementptr inbounds [4 x float], ptr %130, i64 0, i64 3
  store float %128, ptr %131, align 4, !tbaa !3
  store i32 1, ptr %4, align 4
  call void @llvm.lifetime.end.p0(i64 8, ptr %8) #3
  br label %151

132:                                              ; preds = %17, %14, %3
  %133 = landingpad { ptr, i32 }
          cleanup
          catch ptr @_ZTISt9exception
  %134 = extractvalue { ptr, i32 } %133, 0
  store ptr %134, ptr %9, align 8
  %135 = extractvalue { ptr, i32 } %133, 1
  store i32 %135, ptr %10, align 4
  call void @llvm.lifetime.end.p0(i64 8, ptr %8) #3
  br label %136

136:                                              ; preds = %132
  %137 = load i32, ptr %10, align 4
  %138 = call i32 @llvm.eh.typeid.for.p0(ptr @_ZTISt9exception) #3
  %139 = icmp eq i32 %137, %138
  br i1 %139, label %140, label %153

140:                                              ; preds = %136
  call void @llvm.lifetime.start.p0(i64 8, ptr %11) #3
  %141 = load ptr, ptr %9, align 8
  %142 = call ptr @__cxa_begin_catch(ptr %141) #3
  store ptr %142, ptr %11, align 8
  %143 = load ptr, ptr %11, align 8, !tbaa !23
  invoke void @_ZN12_GLOBAL__N_115setErrorMessageERKSt9exception(ptr noundef nonnull align 8 dereferenceable(8) %143)
          to label %144 unwind label %145

144:                                              ; preds = %140
  store i32 0, ptr %4, align 4
  call void @__cxa_end_catch()
  call void @llvm.lifetime.end.p0(i64 8, ptr %11) #3
  br label %151

145:                                              ; preds = %140
  %146 = landingpad { ptr, i32 }
          cleanup
  %147 = extractvalue { ptr, i32 } %146, 0
  store ptr %147, ptr %9, align 8
  %148 = extractvalue { ptr, i32 } %146, 1
  store i32 %148, ptr %10, align 4
  invoke void @__cxa_end_catch()
          to label %149 unwind label %158

149:                                              ; preds = %145
  call void @llvm.lifetime.end.p0(i64 8, ptr %11) #3
  br label %153

150:                                              ; No predecessors!
  unreachable

151:                                              ; preds = %144, %19
  %152 = load i32, ptr %4, align 4
  ret i32 %152

153:                                              ; preds = %149, %136
  %154 = load ptr, ptr %9, align 8
  %155 = load i32, ptr %10, align 4
  %156 = insertvalue { ptr, i32 } poison, ptr %154, 0
  %157 = insertvalue { ptr, i32 } %156, i32 %155, 1
  resume { ptr, i32 } %157

158:                                              ; preds = %145
  %159 = landingpad { ptr, i32 }
          catch ptr null
  %160 = extractvalue { ptr, i32 } %159, 0
  call void @__clang_call_terminate(ptr %160) #18
  unreachable
}