; Function Attrs: mustprogress uwtable
define range(i32 0, 2) i32 @ImfHeaderM44fAttribute(ptr noundef nonnull %0, ptr noundef %1, ptr noundef writeonly captures(none) %2) local_unnamed_addr #8 personality ptr @__gxx_personality_v0 {
  %4 = invoke noundef nonnull align 8 dereferenceable(8) ptr @_ZNK7Imf_3_46HeaderixEPKc(ptr noundef nonnull align 8 dereferenceable(49) %0, ptr noundef %1)
          to label %.noexc unwind label %59

.noexc:                                           ; preds = %3
  %5 = tail call ptr @__dynamic_cast(ptr nonnull %4, ptr nonnull @_ZTIN7Imf_3_49AttributeE, ptr nonnull @_ZTIN7Imf_3_414TypedAttributeIN9Imath_3_28Matrix44IfEEEE, i64 0) #24
  %6 = icmp eq ptr %5, null
  br i1 %6, label %7, label %_ZNK7Imf_3_46Header14typedAttributeINS_14TypedAttributeIN9Imath_3_28Matrix44IfEEEEEERKT_PKc.exit

7:                                                ; preds = %.noexc
  %8 = tail call ptr @__cxa_allocate_exception(i64 72) #24
  invoke void @_ZN7Iex_3_47TypeExcC1EPKc(ptr noundef nonnull align 8 dereferenceable(72) %8, ptr noundef nonnull @.str)
          to label %9 unwind label %10

9:                                                ; preds = %7
  invoke void @__cxa_throw(ptr nonnull %8, ptr nonnull @_ZTIN7Iex_3_47TypeExcE, ptr nonnull @_ZN7Iex_3_47TypeExcD1Ev) #26
          to label %.noexc39 unwind label %59

.noexc39:                                         ; preds = %9
  unreachable

10:                                               ; preds = %7
  %11 = landingpad { ptr, i32 }
          cleanup
          catch ptr @_ZTISt9exception
  tail call void @__cxa_free_exception(ptr nonnull %8) #24
  br label %.body

_ZNK7Imf_3_46Header14typedAttributeINS_14TypedAttributeIN9Imath_3_28Matrix44IfEEEEEERKT_PKc.exit: ; preds = %.noexc
  %12 = getelementptr inbounds nuw i8, ptr %5, i64 8
  %13 = load float, ptr %12, align 4, !tbaa !8
  store float %13, ptr %2, align 4, !tbaa !8
  %14 = getelementptr inbounds nuw i8, ptr %5, i64 12
  %15 = load float, ptr %14, align 4, !tbaa !8
  %16 = getelementptr inbounds nuw i8, ptr %2, i64 4
  store float %15, ptr %16, align 4, !tbaa !8
  %17 = getelementptr inbounds nuw i8, ptr %5, i64 16
  %18 = load float, ptr %17, align 4, !tbaa !8
  %19 = getelementptr inbounds nuw i8, ptr %2, i64 8
  store float %18, ptr %19, align 4, !tbaa !8
  %20 = getelementptr inbounds nuw i8, ptr %5, i64 20
  %21 = load float, ptr %20, align 4, !tbaa !8
  %22 = getelementptr inbounds nuw i8, ptr %2, i64 12
  store float %21, ptr %22, align 4, !tbaa !8
  %23 = getelementptr inbounds nuw i8, ptr %5, i64 24
  %24 = load float, ptr %23, align 4, !tbaa !8
  %25 = getelementptr inbounds nuw i8, ptr %2, i64 16
  store float %24, ptr %25, align 4, !tbaa !8
  %26 = getelementptr inbounds nuw i8, ptr %5, i64 28
  %27 = load float, ptr %26, align 4, !tbaa !8
  %28 = getelementptr inbounds nuw i8, ptr %2, i64 20
  store float %27, ptr %28, align 4, !tbaa !8
  %29 = getelementptr inbounds nuw i8, ptr %5, i64 32
  %30 = load float, ptr %29, align 4, !tbaa !8
  %31 = getelementptr inbounds nuw i8, ptr %2, i64 24
  store float %30, ptr %31, align 4, !tbaa !8
  %32 = getelementptr inbounds nuw i8, ptr %5, i64 36
  %33 = load float, ptr %32, align 4, !tbaa !8
  %34 = getelementptr inbounds nuw i8, ptr %2, i64 28
  store float %33, ptr %34, align 4, !tbaa !8
  %35 = getelementptr inbounds nuw i8, ptr %5, i64 40
  %36 = load float, ptr %35, align 4, !tbaa !8
  %37 = getelementptr inbounds nuw i8, ptr %2, i64 32
  store float %36, ptr %37, align 4, !tbaa !8
  %38 = getelementptr inbounds nuw i8, ptr %5, i64 44
  %39 = load float, ptr %38, align 4, !tbaa !8
  %40 = getelementptr inbounds nuw i8, ptr %2, i64 36
  store float %39, ptr %40, align 4, !tbaa !8
  %41 = getelementptr inbounds nuw i8, ptr %5, i64 48
  %42 = load float, ptr %41, align 4, !tbaa !8
  %43 = getelementptr inbounds nuw i8, ptr %2, i64 40
  store float %42, ptr %43, align 4, !tbaa !8
  %44 = getelementptr inbounds nuw i8, ptr %5, i64 52
  %45 = load float, ptr %44, align 4, !tbaa !8
  %46 = getelementptr inbounds nuw i8, ptr %2, i64 44
  store float %45, ptr %46, align 4, !tbaa !8
  %47 = getelementptr inbounds nuw i8, ptr %5, i64 56
  %48 = load float, ptr %47, align 4, !tbaa !8
  %49 = getelementptr inbounds nuw i8, ptr %2, i64 48
  store float %48, ptr %49, align 4, !tbaa !8
  %50 = getelementptr inbounds nuw i8, ptr %5, i64 60
  %51 = load float, ptr %50, align 4, !tbaa !8
  %52 = getelementptr inbounds nuw i8, ptr %2, i64 52
  store float %51, ptr %52, align 4, !tbaa !8
  %53 = getelementptr inbounds nuw i8, ptr %5, i64 64
  %54 = load float, ptr %53, align 4, !tbaa !8
  %55 = getelementptr inbounds nuw i8, ptr %2, i64 56
  store float %54, ptr %55, align 4, !tbaa !8
  %56 = getelementptr inbounds nuw i8, ptr %5, i64 68
  %57 = load float, ptr %56, align 4, !tbaa !8
  %58 = getelementptr inbounds nuw i8, ptr %2, i64 60
  store float %57, ptr %58, align 4, !tbaa !8
  br label %72

59:                                               ; preds = %9, %3
  %60 = landingpad { ptr, i32 }
          cleanup
          catch ptr @_ZTISt9exception
  br label %.body

.body:                                            ; preds = %10, %59
  %eh.lpad-body = phi { ptr, i32 } [ %60, %59 ], [ %11, %10 ]
  %61 = extractvalue { ptr, i32 } %eh.lpad-body, 1
  %62 = tail call i32 @llvm.eh.typeid.for.p0(ptr nonnull @_ZTISt9exception) #24
  %63 = icmp eq i32 %61, %62
  br i1 %63, label %64, label %73

64:                                               ; preds = %.body
  %65 = extractvalue { ptr, i32 } %eh.lpad-body, 0
  %66 = tail call ptr @__cxa_begin_catch(ptr %65) #24
  %67 = load ptr, ptr %66, align 8, !tbaa !22
  %68 = getelementptr inbounds nuw i8, ptr %67, i64 16
  %69 = load ptr, ptr %68, align 8
  %70 = tail call noundef ptr %69(ptr noundef nonnull align 8 dereferenceable(8) %66) #24
  %71 = tail call ptr @strncpy(ptr noundef nonnull dereferenceable(1) @_ZN12_GLOBAL__N_112errorMessageE, ptr noundef nonnull dereferenceable(1) %70, i64 noundef 1023) #24
  store i8 0, ptr getelementptr inbounds nuw (i8, ptr @_ZN12_GLOBAL__N_112errorMessageE, i64 1023), align 1, !tbaa !15
  tail call void @__cxa_end_catch()
  br label %72

72:                                               ; preds = %64, %_ZNK7Imf_3_46Header14typedAttributeINS_14TypedAttributeIN9Imath_3_28Matrix44IfEEEEEERKT_PKc.exit
  %.0 = phi i32 [ 1, %_ZNK7Imf_3_46Header14typedAttributeINS_14TypedAttributeIN9Imath_3_28Matrix44IfEEEEEERKT_PKc.exit ], [ 0, %64 ]
  ret i32 %.0

73:                                               ; preds = %.body
  resume { ptr, i32 } %eh.lpad-body
}